; Function Attrs: nounwind uwtable
define internal fastcc void @_mpd_qadd_exact(ptr noundef %0, ptr noundef %1, ptr noundef %2, ptr noundef nonnull readonly captures(none) %3, ptr noundef nonnull captures(none) %4) unnamed_addr #10 {
  %6 = alloca i8, align 1
  %7 = alloca i32, align 4
  call void @llvm.lifetime.start.p0(i64 4, ptr nonnull %7) #33
  store i32 0, ptr %7, align 4, !tbaa !23
  %8 = load i8, ptr %1, align 8, !tbaa !19
  %9 = and i8 %8, 14
  %.not.i = icmp eq i8 %9, 0
  br i1 %.not.i, label %10, label %13

10:                                               ; preds = %5
  %11 = load i8, ptr %2, align 8, !tbaa !19
  %12 = and i8 %11, 14
  %.not21.i = icmp eq i8 %12, 0
  br i1 %.not21.i, label %18, label %13

13:                                               ; preds = %10, %5
  %14 = call i32 @mpd_qcheck_nans(ptr noundef %0, ptr noundef nonnull %1, ptr noundef %2, ptr noundef nonnull readonly %3, ptr noundef nonnull %7)
  %.not22.i = icmp eq i32 %14, 0
  br i1 %.not22.i, label %15, label %mpd_qadd.exit

15:                                               ; preds = %13
  %16 = load i8, ptr %2, align 8, !tbaa !19
  %17 = and i8 %16, 1
  %.val.i = load i8, ptr %1, align 8, !tbaa !19
  call fastcc void @_mpd_qaddsub_inf(ptr noundef %0, i8 %.val.i, ptr noundef nonnull %2, i8 noundef zeroext %17, ptr noundef nonnull %7)
  br label %mpd_qadd.exit

18:                                               ; preds = %10
  %19 = and i8 %11, 1
  call fastcc void @_mpd_qaddsub(ptr noundef %0, ptr noundef nonnull %1, ptr noundef nonnull %2, i8 noundef zeroext %19, ptr noundef nonnull readonly %3, ptr noundef nonnull %7)
  call void @mpd_qfinalize(ptr noundef %0, ptr noundef nonnull readonly %3, ptr noundef nonnull %7)
  br label %mpd_qadd.exit

mpd_qadd.exit:                                    ; preds = %13, %15, %18
  %20 = load i32, ptr %7, align 4, !tbaa !23
  %21 = load i32, ptr %4, align 4, !tbaa !23
  %22 = or i32 %21, %20
  store i32 %22, ptr %4, align 4, !tbaa !23
  %23 = and i32 %20, 4161
  %.not = icmp eq i32 %23, 0
  br i1 %.not, label %46, label %24

24:                                               ; preds = %mpd_qadd.exit
  %25 = load i8, ptr %0, align 8, !tbaa !19
  %26 = and i8 %25, 32
  %.not.i.i = icmp eq i8 %26, 0
  br i1 %.not.i.i, label %27, label %mpd_seterror.exit

27:                                               ; preds = %24
  %28 = getelementptr inbounds nuw i8, ptr %0, i64 32
  %29 = load i64, ptr %28, align 8, !tbaa !21
  %30 = load i64, ptr @MPD_MINALLOC, align 8, !tbaa !3
  %31 = icmp sgt i64 %29, %30
  br i1 %31, label %32, label %mpd_seterror.exit

32:                                               ; preds = %27
  call void @llvm.lifetime.start.p0(i64 1, ptr nonnull %6) #33
  store i8 0, ptr %6, align 1, !tbaa !22
  %33 = getelementptr inbounds nuw i8, ptr %0, i64 40
  %34 = load ptr, ptr %33, align 8, !tbaa !17
  %35 = call ptr @mpd_realloc(ptr noundef %34, i64 noundef %30, i64 noundef 8, ptr noundef nonnull %6) #33
  store ptr %35, ptr %33, align 8, !tbaa !17
  %36 = load i8, ptr %6, align 1, !tbaa !22
  %.not5.i.i = icmp eq i8 %36, 0
  br i1 %.not5.i.i, label %37, label %39

37:                                               ; preds = %32
  %38 = load i64, ptr @MPD_MINALLOC, align 8, !tbaa !3
  store i64 %38, ptr %28, align 8, !tbaa !21
  br label %39

39:                                               ; preds = %37, %32
  call void @llvm.lifetime.end.p0(i64 1, ptr nonnull %6) #33
  %.pre.i = load i8, ptr %0, align 8, !tbaa !19
  br label %mpd_seterror.exit

mpd_seterror.exit:                                ; preds = %24, %27, %39
  %40 = phi i8 [ %25, %24 ], [ %25, %27 ], [ %.pre.i, %39 ]
  %41 = and i8 %40, -16
  %42 = or disjoint i8 %41, 4
  store i8 %42, ptr %0, align 8, !tbaa !19
  %43 = getelementptr inbounds nuw i8, ptr %0, i64 8
  call void @llvm.memset.p0.i64(ptr noundef nonnull align 8 dereferenceable(24) %43, i8 0, i64 24, i1 false)
  %44 = load i32, ptr %4, align 4, !tbaa !23
  %45 = or i32 %44, 256
  store i32 %45, ptr %4, align 4, !tbaa !23
  br label %46

46:                                               ; preds = %mpd_seterror.exit, %mpd_qadd.exit
  call void @llvm.lifetime.end.p0(i64 4, ptr nonnull %7) #33
  ret void
}